#include <math.h>
#include <stdio.h>
#include <stdlib.h>
#include <string.h>

void main()
{
	char a[15],b[11]={'\0'},c[4]={'\0'};
	int i,j,k,p,l;

	while (scanf("%s%s",b,c)!=EOF)	
	{
		l=strlen(b);p=0;
		for(i=1;i<l;i++)
			if(b[i]>b[p]) p=i;
		for(i=0;i<=p;i++) printf("%c",b[i]);
		for(i=0;i<3;i++) printf("%c",c[i]);
		for(i=p+1;i<l;i++) printf("%c",b[i]);
		printf("\n");
	}
}